(lp0
F0.556
aF1.571
aF2.5860000000000003
aF3.6
aF4.615
aF5.629
aF6.644
aF7.659
aF8.673
aF9.687999999999999
aF10.702
aF11.717
aF12.731
aF13.745999999999999
aF14.761
aF15.775
aF16.79
aF17.804000000000002
aF18.819000000000003
aF19.834
aF20.848000000000003
aF21.863000000000003
aF22.877
aF23.892
aF24.906999999999996
aF25.921
aF26.936
aF27.95
aF28.965
aF29.98
aF30.994
aF32.009
aF33.023
aF34.038000000000004
aF35.053000000000004
aF36.067
aF37.082
aF38.096
aF39.111
aF40.126
aF41.14
aF42.155
aF43.169
aF44.184
aF45.199
aF46.213
aF47.228
aF48.242
aF49.257
aF50.271
aF51.286
aF52.301
aF53.315
aF54.33
aF55.343999999999994
aF56.358999999999995
aF57.373999999999995
aF58.388000000000005
aF59.403
aF60.417
aF61.431999999999995
aF62.446999999999996
aF63.461000000000006
aF64.476
aF65.49
aF66.505
aF67.52
aF68.53399999999999
aF69.54899999999999
aF70.563
aF71.578
aF72.593
aF73.607
aF74.622
aF75.63600000000001
aF76.65100000000001
aF77.666
aF78.68
aF79.695
aF80.709
aF81.72399999999999
aF82.73899999999999
aF83.75299999999999
aF84.76799999999999
aF85.78200000000001
aF86.79700000000001
aF87.81200000000001
aF88.82600000000001
aF89.84100000000001
aF90.855
aF91.87
aF92.884
aF93.899
aF94.914
aF95.928
aF96.943
aF97.95700000000001
aF98.97200000000001
aF99.98700000000001
aF101.001
aF102.016
aF103.03
aF104.045
aF105.06
aF106.074
aF107.089
aF108.103
aF109.118
aF110.133
aF111.147
aF112.162
aF113.176
aF114.191
aF115.206
aF116.22
aF117.235
aF118.249
aF119.264
aF120.279
aF121.29299999999999
aF122.30799999999999
aF123.322
aF124.337
aF125.352
aF126.366
aF127.381
aF128.395
aF129.41
aF130.424
aF131.439
aF132.454
aF133.468
aF134.483
aF135.497
aF136.512
aF137.52700000000002
aF138.541
aF139.556
aF140.57
aF141.585
aF142.6
aF143.614
aF144.629
aF145.643
aF146.658
aF147.673
aF148.687
aF149.702
aF150.716
aF151.731
aF152.746
aF153.76
aF154.775
aF155.789
aF156.804
aF157.819
aF158.833
aF159.84799999999998
aF160.862
aF161.877
aF162.892
aF163.90599999999998
aF164.921
aF165.935
aF166.95
aF167.96400000000003
aF168.979
aF169.99400000000003
aF171.00799999999998
aF172.023
aF173.037
aF174.05200000000002
aF175.067
aF176.081
aF177.09599999999998
aF178.11
aF179.125
aF180.14
aF181.15400000000002
aF182.169
aF183.183
aF184.19799999999998
aF185.213
aF186.227
aF187.24200000000002
aF188.25599999999997
aF189.271
aF190.28599999999997
aF191.3
aF192.315
aF193.329
aF194.34400000000002
aF195.359
aF196.373
aF197.388
aF198.40200000000002
aF199.417
aF200.43200000000002
aF201.446
aF202.46099999999998
aF203.475
aF204.49
aF205.50400000000002
aF206.519
aF207.53400000000002
aF208.548
aF209.563
aF210.577
aF211.592
aF212.607
aF213.62099999999998
aF214.636
aF215.65
aF216.665
aF217.68
aF218.69400000000002
aF219.709
aF220.72299999999998
aF221.738
aF222.753
aF223.767
aF224.782
aF225.796
aF226.81099999999998
aF227.826
aF228.84
aF229.855
aF230.86900000000003
aF231.88400000000001
aF232.899
aF233.91299999999998
aF234.928
aF235.942
aF236.957
aF237.972
aF238.986
aF240.00099999999998
aF241.015
aF242.03
aF243.045
aF244.05900000000003
aF245.074
aF246.088
aF247.10299999999998
aF248.11700000000002
aF249.132
aF250.14700000000002
aF251.16099999999997
aF252.176
aF253.19
aF254.205
aF255.22
aF256.23400000000004
aF257.249
aF258.263
aF259.278
aF260.293
aF261.307
aF262.322
aF263.336
aF264.351
aF265.366
aF266.38
aF267.395
aF268.409
aF269.42400000000004
aF270.439
aF271.453
aF272.468
aF273.482
aF274.497
aF275.512
aF276.526
aF277.541
aF278.555
aF279.57
aF280.585
aF281.599
aF282.61400000000003
aF283.628
aF284.643
aF285.657
aF286.672
aF287.687
aF288.70099999999996
aF289.716
aF290.73
aF291.745
aF292.76
aF293.774
aF294.789
aF295.803
aF296.818
aF297.83299999999997
aF298.847
aF299.862
aF300.876
aF301.89099999999996
aF302.906
aF303.92
aF304.935
aF305.949
aF306.964
aF307.97900000000004
aF308.993
aF310.008
aF311.022
aF312.03700000000003
aF313.052
aF314.066
aF315.08099999999996
aF316.095
aF317.11
aF318.125
aF319.139
aF320.154
aF321.168
aF322.183
aF323.197
aF324.212
aF325.22700000000003
aF326.241
aF327.256
aF328.27
aF329.285
aF330.3
aF331.314
aF332.329
aF333.343
aF334.358
aF335.37300000000005
aF336.38699999999994
aF337.402
aF338.416
aF339.431
aF340.44599999999997
aF341.46
aF342.475
aF343.48900000000003
aF344.504
aF345.519
aF346.533
aF347.548
aF348.56199999999995
aF349.577
aF350.592
aF351.606
aF352.621
aF353.635
aF354.65
aF355.665
aF356.67900000000003
aF357.694
aF358.708
aF359.723
aF360.73800000000006
aF361.75199999999995
aF362.767
aF363.781
aF364.796
aF365.81
aF366.825
aF367.84
aF368.85400000000004
aF369.869
aF370.88300000000004
aF371.898
aF372.913
aF373.92699999999996
aF374.94199999999995
aF375.95599999999996
aF376.971
aF377.986
aF379.0
aF380.015
aF381.029
aF382.04400000000004
aF383.059
aF384.07300000000004
aF385.088
aF386.102
aF387.11699999999996
aF388.13199999999995
aF389.14599999999996
aF390.161
aF391.175
aF392.19
aF393.205
aF394.219
aF395.23400000000004
aF396.24800000000005
aF397.26300000000003
aF398.278
aF399.292
aF400.30699999999996
aF401.32099999999997
aF402.336
aF403.35
aF404.365
aF405.38
aF406.394
aF407.409
aF408.423
aF409.43800000000005
aF410.45300000000003
aF411.467
aF412.48199999999997
aF413.496
aF414.51099999999997
aF415.526
aF416.54
aF417.555
aF418.569
aF419.584
aF420.599
aF421.61300000000006
aF422.62800000000004
a.